; Function Attrs: nounwind uwtable
define void @Ivy_ObjPatchFanin0(ptr noundef %0, ptr noundef %1, ptr noundef %2) local_unnamed_addr #0 {
  %4 = getelementptr i8, ptr %1, i64 16
  %.val = load ptr, ptr %4, align 8, !tbaa !24
  %5 = ptrtoint ptr %.val to i64
  %6 = and i64 %5, -2
  %7 = inttoptr i64 %6 to ptr
  %8 = getelementptr inbounds nuw i8, ptr %7, i64 12
  %9 = load i32, ptr %8, align 4, !tbaa !26
  %10 = add nsw i32 %9, -1
  store i32 %10, ptr %8, align 4, !tbaa !26
  %11 = getelementptr inbounds nuw i8, ptr %0, i64 192
  %12 = load i32, ptr %11, align 8, !tbaa !27
  %.not = icmp eq i32 %12, 0
  br i1 %.not, label %.thread, label %19

.thread:                                          ; preds = %3
  store ptr %2, ptr %4, align 8, !tbaa !24
  %13 = ptrtoint ptr %2 to i64
  %14 = and i64 %13, -2
  %15 = inttoptr i64 %14 to ptr
  %16 = getelementptr inbounds nuw i8, ptr %15, i64 12
  %17 = load i32, ptr %16, align 4, !tbaa !26
  %18 = add nsw i32 %17, 1
  store i32 %18, ptr %16, align 4, !tbaa !26
  br label %28

19:                                               ; preds = %3
  tail call void @Ivy_ObjDeleteFanout(ptr noundef nonnull %0, ptr noundef nonnull %7, ptr noundef nonnull %1) #7
  %.pre = load i32, ptr %11, align 8, !tbaa !27
  %20 = icmp eq i32 %.pre, 0
  store ptr %2, ptr %4, align 8, !tbaa !24
  %21 = ptrtoint ptr %2 to i64
  %22 = and i64 %21, -2
  %23 = inttoptr i64 %22 to ptr
  %24 = getelementptr inbounds nuw i8, ptr %23, i64 12
  %25 = load i32, ptr %24, align 4, !tbaa !26
  %26 = add nsw i32 %25, 1
  store i32 %26, ptr %24, align 4, !tbaa !26
  br i1 %20, label %28, label %27

27:                                               ; preds = %19
  tail call void @Ivy_ObjAddFanout(ptr noundef nonnull %0, ptr noundef nonnull %23, ptr noundef nonnull %1) #7
  br label %28

28:                                               ; preds = %.thread, %27, %19
  %29 = getelementptr i8, ptr %7, i64 8
  %.val21 = load i32, ptr %29, align 8
  %30 = and i32 %.val21, 15
  %.not24 = icmp eq i32 %30, 1
  br i1 %.not24, label %35, label %31

31:                                               ; preds = %28
  %.val22 = load i32, ptr %7, align 8, !tbaa !20
  %.not25 = icmp eq i32 %.val22, 0
  br i1 %.not25, label %35, label %32

32:                                               ; preds = %31
  %.val23 = load i32, ptr %8, align 4, !tbaa !26
  %33 = icmp eq i32 %.val23, 0
  br i1 %33, label %34, label %35

34:                                               ; preds = %32
  tail call void @Ivy_ObjDelete_rec(ptr noundef nonnull %0, ptr noundef nonnull %7, i32 noundef 1)
  br label %35

35:                                               ; preds = %34, %32, %31, %28
  ret void
}